target datalayout = "e-m:e-p270:32:32-p271:32:32-p272:64:64-i64:64-i128:128-f80:128-n8:16:32:64-S128"
target triple = "x86_64-pc-linux-gnu"

%struct.StringInfoData = type { ptr, i32, i32, i32 }

@.str.1 = private unnamed_addr constant [14 x i8] c"pg_shdepend.c\00", align 1
@.str.13 = private unnamed_addr constant [33 x i8] c"unrecognized dependency type: %d\00", align 1
@.str.15 = private unnamed_addr constant [12 x i8] c"owner of %s\00", align 1
@.str.16 = private unnamed_addr constant [18 x i8] c"privileges for %s\00", align 1
@.str.17 = private unnamed_addr constant [26 x i8] c"initial privileges for %s\00", align 1
@.str.18 = private unnamed_addr constant [13 x i8] c"target of %s\00", align 1
@.str.19 = private unnamed_addr constant [18 x i8] c"tablespace for %s\00", align 1
@__func__.storeObjectDescription = private unnamed_addr constant [23 x i8] c"storeObjectDescription\00", align 1
@.str.20 = private unnamed_addr constant [16 x i8] c"%d object in %s\00", align 1
@.str.21 = private unnamed_addr constant [17 x i8] c"%d objects in %s\00", align 1
@.str.22 = private unnamed_addr constant [29 x i8] c"unrecognized object type: %d\00", align 1

; Function Attrs: nounwind uwtable
define internal void @storeObjectDescription(ptr noundef %0, i32 noundef %1, ptr noundef %2, i32 noundef %3, i32 noundef %4) #0 {
  %6 = alloca ptr, align 8
  %7 = alloca i32, align 4
  %8 = alloca ptr, align 8
  %9 = alloca i32, align 4
  %10 = alloca i32, align 4
  %11 = alloca ptr, align 8
  %12 = alloca i32, align 4
  store ptr %0, ptr %6, align 8
  store i32 %1, ptr %7, align 4
  store ptr %2, ptr %8, align 8
  store i32 %3, ptr %9, align 4
  store i32 %4, ptr %10, align 4
  call void @llvm.lifetime.start.p0(i64 8, ptr %11) #7
  %13 = load ptr, ptr %8, align 8
  %14 = call ptr @getObjectDescription(ptr noundef %13, i1 noundef zeroext false)
  store ptr %14, ptr %11, align 8
  %15 = load ptr, ptr %11, align 8
  %16 = icmp eq ptr %15, null
  br i1 %16, label %17, label %18

17:                                               ; preds = %5
  store i32 1, ptr %12, align 4
  br label %95

18:                                               ; preds = %5
  %19 = load ptr, ptr %6, align 8
  %20 = getelementptr inbounds nuw %struct.StringInfoData, ptr %19, i32 0, i32 1
  %21 = load i32, ptr %20, align 8
  %22 = icmp ne i32 %21, 0
  br i1 %22, label %23, label %25

23:                                               ; preds = %18
  %24 = load ptr, ptr %6, align 8
  call void @appendStringInfoChar(ptr noundef %24, i8 noundef signext 10)
  br label %25

25:                                               ; preds = %23, %18
  %26 = load i32, ptr %7, align 4
  switch i32 %26, label %81 [
    i32 0, label %27
    i32 1, label %27
    i32 2, label %74
  ]

27:                                               ; preds = %25, %25
  %28 = load i32, ptr %9, align 4
  %29 = icmp eq i32 %28, 111
  br i1 %29, label %30, label %33

30:                                               ; preds = %27
  %31 = load ptr, ptr %6, align 8
  %32 = load ptr, ptr %11, align 8
  call void (ptr, ptr, ...) @appendStringInfo(ptr noundef %31, ptr noundef @.str.15, ptr noundef %32)
  br label %73

33:                                               ; preds = %27
  %34 = load i32, ptr %9, align 4
  %35 = icmp eq i32 %34, 97
  br i1 %35, label %36, label %39

36:                                               ; preds = %33
  %37 = load ptr, ptr %6, align 8
  %38 = load ptr, ptr %11, align 8
  call void (ptr, ptr, ...) @appendStringInfo(ptr noundef %37, ptr noundef @.str.16, ptr noundef %38)
  br label %72

39:                                               ; preds = %33
  %40 = load i32, ptr %9, align 4
  %41 = icmp eq i32 %40, 105
  br i1 %41, label %42, label %45

42:                                               ; preds = %39
  %43 = load ptr, ptr %6, align 8
  %44 = load ptr, ptr %11, align 8
  call void (ptr, ptr, ...) @appendStringInfo(ptr noundef %43, ptr noundef @.str.17, ptr noundef %44)
  br label %71

45:                                               ; preds = %39
  %46 = load i32, ptr %9, align 4
  %47 = icmp eq i32 %46, 114
  br i1 %47, label %48, label %51

48:                                               ; preds = %45
  %49 = load ptr, ptr %6, align 8
  %50 = load ptr, ptr %11, align 8
  call void (ptr, ptr, ...) @appendStringInfo(ptr noundef %49, ptr noundef @.str.18, ptr noundef %50)
  br label %70

51:                                               ; preds = %45
  %52 = load i32, ptr %9, align 4
  %53 = icmp eq i32 %52, 116
  br i1 %53, label %54, label %57

54:                                               ; preds = %51
  %55 = load ptr, ptr %6, align 8
  %56 = load ptr, ptr %11, align 8
  call void (ptr, ptr, ...) @appendStringInfo(ptr noundef %55, ptr noundef @.str.19, ptr noundef %56)
  br label %69

57:                                               ; preds = %51
  br label %58

58:                                               ; preds = %57
  br i1 true, label %59, label %61

59:                                               ; preds = %58
  %60 = call zeroext i1 @errstart_cold(i32 noundef 21, ptr noundef null) #8
  br i1 %60, label %63, label %66

61:                                               ; preds = %58
  %62 = call zeroext i1 @errstart(i32 noundef 21, ptr noundef null)
  br i1 %62, label %63, label %66

63:                                               ; preds = %61, %59
  %64 = load i32, ptr %9, align 4
  %65 = call i32 (ptr, ...) @errmsg_internal(ptr noundef @.str.13, i32 noundef %64)
  call void @errfinish(ptr noundef @.str.1, i32 noundef 1310, ptr noundef @__func__.storeObjectDescription)
  br label %66

66:                                               ; preds = %63, %61, %59
  unreachable

67:                                               ; No predecessors!
  br label %68

68:                                               ; preds = %67
  br label %69

69:                                               ; preds = %68, %54
  br label %70

70:                                               ; preds = %69, %48
  br label %71

71:                                               ; preds = %70, %42
  br label %72

72:                                               ; preds = %71, %36
  br label %73

73:                                               ; preds = %72, %30
  br label %93

74:                                               ; preds = %25
  %75 = load ptr, ptr %6, align 8
  %76 = load i32, ptr %10, align 4
  %77 = icmp eq i32 %76, 1
  %78 = select i1 %77, ptr @.str.20, ptr @.str.21
  %79 = load i32, ptr %10, align 4
  %80 = load ptr, ptr %11, align 8
  call void (ptr, ptr, ...) @appendStringInfo(ptr noundef %75, ptr noundef %78, i32 noundef %79, ptr noundef %80)
  br label %93

81:                                               ; preds = %25
  br label %82

82:                                               ; preds = %81
  br i1 true, label %83, label %85

83:                                               ; preds = %82
  %84 = call zeroext i1 @errstart_cold(i32 noundef 21, ptr noundef null) #8
  br i1 %84, label %87, label %90

85:                                               ; preds = %82
  %86 = call zeroext i1 @errstart(i32 noundef 21, ptr noundef null)
  br i1 %86, label %87, label %90

87:                                               ; preds = %85, %83
  %88 = load i32, ptr %7, align 4
  %89 = call i32 (ptr, ...) @errmsg_internal(ptr noundef @.str.22, i32 noundef %88)
  call void @errfinish(ptr noundef @.str.1, i32 noundef 1322, ptr noundef @__func__.storeObjectDescription)
  br label %90

90:                                               ; preds = %87, %85, %83
  unreachable

91:                                               ; No predecessors!
  br label %92

92:                                               ; preds = %91
  br label %93

93:                                               ; preds = %92, %74, %73
  %94 = load ptr, ptr %11, align 8
  call void @pfree(ptr noundef %94)
  store i32 0, ptr %12, align 4
  br label %95

95:                                               ; preds = %93, %17
  call void @llvm.lifetime.end.p0(i64 8, ptr %11) #7
  %96 = load i32, ptr %12, align 4
  switch i32 %96, label %98 [
    i32 0, label %97
    i32 1, label %97
  ]

97:                                               ; preds = %95, %95
  ret void

98:                                               ; preds = %95
  unreachable
}