; Function Attrs: nounwind uwtable
define internal fastcc void @storeObjectDescription(ptr noundef nonnull %0, i32 noundef %1, ptr noundef %2, i32 noundef range(i32 -128, 128) %3, i32 noundef %4) unnamed_addr #0 {
  %6 = tail call ptr @getObjectDescription(ptr noundef %2, i1 noundef zeroext false) #8
  %7 = icmp eq ptr %6, null
  br i1 %7, label %29, label %8

8:                                                ; preds = %5
  %9 = getelementptr inbounds nuw i8, ptr %0, i64 8
  %10 = load i32, ptr %9, align 8
  %.not = icmp eq i32 %10, 0
  br i1 %.not, label %12, label %11

11:                                               ; preds = %8
  tail call void @appendStringInfoChar(ptr noundef nonnull %0, i8 noundef signext 10) #8
  br label %12

12:                                               ; preds = %11, %8
  switch i32 %1, label %25 [
    i32 0, label %13
    i32 1, label %13
    i32 2, label %22
  ]

13:                                               ; preds = %12, %12
  switch i32 %3, label %19 [
    i32 111, label %14
    i32 97, label %15
    i32 105, label %16
    i32 114, label %17
    i32 116, label %18
  ]

14:                                               ; preds = %13
  tail call void (ptr, ptr, ...) @appendStringInfo(ptr noundef nonnull %0, ptr noundef nonnull @.str.15, ptr noundef nonnull %6) #8
  br label %28

15:                                               ; preds = %13
  tail call void (ptr, ptr, ...) @appendStringInfo(ptr noundef nonnull %0, ptr noundef nonnull @.str.16, ptr noundef nonnull %6) #8
  br label %28

16:                                               ; preds = %13
  tail call void (ptr, ptr, ...) @appendStringInfo(ptr noundef nonnull %0, ptr noundef nonnull @.str.17, ptr noundef nonnull %6) #8
  br label %28

17:                                               ; preds = %13
  tail call void (ptr, ptr, ...) @appendStringInfo(ptr noundef nonnull %0, ptr noundef nonnull @.str.18, ptr noundef nonnull %6) #8
  br label %28

18:                                               ; preds = %13
  tail call void (ptr, ptr, ...) @appendStringInfo(ptr noundef nonnull %0, ptr noundef nonnull @.str.19, ptr noundef nonnull %6) #8
  br label %28

19:                                               ; preds = %13
  %20 = tail call zeroext i1 @errstart_cold(i32 noundef 21, ptr noundef null) #9
  tail call void @llvm.assume(i1 %20)
  %21 = tail call i32 (ptr, ...) @errmsg_internal(ptr noundef nonnull @.str.13, i32 noundef %3) #8
  tail call void @errfinish(ptr noundef nonnull @.str.1, i32 noundef 1310, ptr noundef nonnull @__func__.storeObjectDescription) #8
  unreachable

22:                                               ; preds = %12
  %23 = icmp eq i32 %4, 1
  %24 = select i1 %23, ptr @.str.20, ptr @.str.21
  tail call void (ptr, ptr, ...) @appendStringInfo(ptr noundef nonnull %0, ptr noundef nonnull %24, i32 noundef %4, ptr noundef nonnull %6) #8
  br label %28

25:                                               ; preds = %12
  %26 = tail call zeroext i1 @errstart_cold(i32 noundef 21, ptr noundef null) #9
  tail call void @llvm.assume(i1 %26)
  %27 = tail call i32 (ptr, ...) @errmsg_internal(ptr noundef nonnull @.str.22, i32 noundef %1) #8
  tail call void @errfinish(ptr noundef nonnull @.str.1, i32 noundef 1322, ptr noundef nonnull @__func__.storeObjectDescription) #8
  unreachable

28:                                               ; preds = %14, %16, %18, %17, %15, %22
  tail call void @pfree(ptr noundef nonnull %6) #8
  br label %29

29:                                               ; preds = %5, %28
  ret void
}